(dp1
S'system'
p2
S'sage'
p3
sS'saved_by_info'
p4
(dp5
sS'tags'
p6
(dp7
S'admin'
p8
(lp9
I1
assS'id_number'
p10
I9
sS'pretty_print'
p11
I00
sS'live_3D'
p12
I00
sS'published_id_number'
p13
NsS'owner'
p14
g8
sS'viewers'
p15
(lp16
sS'ratings'
p17
(lp18
sS'collaborators'
p19
(lp20
sS'name'
p21
VConformal mapping
p22
sS'auto_publish'
p23
I00
sS'last_change'
p24
(g8
F1462845250.6718431
tp25
sS'worksheet_that_was_published'
p26
(g8
I9
tp27
s.