(dp1
S'system'
p2
Vsage
p3
sS'saved_by_info'
p4
(dp5
S'1472845761'
p6
S'admin'
p7
sS'1472846360'
p8
S'admin'
p9
ssS'tags'
p10
(dp11
S'admin'
p12
(lp13
I1
assS'id_number'
p14
I10
sS'pretty_print'
p15
I00
sS'live_3D'
p16
I00
sS'published_id_number'
p17
NsS'owner'
p18
Vadmin
p19
sS'viewers'
p20
(lp21
sS'ratings'
p22
(lp23
sS'collaborators'
p24
(lp25
sS'name'
p26
VStudyOfJ_SR_for_Ca_influx
p27
sS'auto_publish'
p28
I00
sS'last_change'
p29
(S'admin'
p30
F1472848273.1252339
tp31
sS'worksheet_that_was_published'
p32
(g12
I10
tp33
s.