(dp1
S'system'
p2
S'sage'
p3
sS'saved_by_info'
p4
(dp5
sS'tags'
p6
(dp7
Vadmin
p8
(lp9
I1
assS'id_number'
p10
I8
sS'pretty_print'
p11
I01
sS'live_3D'
p12
I00
sS'published_id_number'
p13
NsS'owner'
p14
Vadmin
p15
sS'viewers'
p16
(lp17
sS'ratings'
p18
(lp19
sS'collaborators'
p20
(lp21
sS'name'
p22
VCa SR-outflux time course functions
p23
sS'auto_publish'
p24
I00
sS'last_change'
p25
(S'admin'
p26
F1444183223.4353909
tp27
sS'worksheet_that_was_published'
p28
(g8
I8
tp29
s.