(dp1
S'system'
p2
S'sage'
p3
sS'saved_by_info'
p4
(dp5
sS'tags'
p6
(dp7
S'admin'
p8
(lp9
I2
assS'id_number'
p10
I0
sS'pretty_print'
p11
I00
sS'live_3D'
p12
I00
sS'published_id_number'
p13
NsS'owner'
p14
NsS'viewers'
p15
(lp16
sS'ratings'
p17
(lp18
sS'collaborators'
p19
(lp20
sS'name'
p21
VUntitled
p22
sS'auto_publish'
p23
I00
sS'last_change'
p24
(S'admin'
p25
F1490121233.724267
tp26
sS'worksheet_that_was_published'
p27
(NI0
tp28
s.