(dp1
S'system'
p2
Vlatex
p3
sS'saved_by_info'
p4
(dp5
S'1490153605'
p6
S'admin'
p7
ssS'tags'
p8
(dp9
S'admin'
p10
(lp11
I1
assS'id_number'
p12
I5
sS'pretty_print'
p13
I01
sS'live_3D'
p14
I00
sS'published_id_number'
p15
NsS'owner'
p16
Vadmin
p17
sS'viewers'
p18
(lp19
sS'ratings'
p20
(lp21
sS'collaborators'
p22
(lp23
sS'name'
p24
VMassLossPendulumLagrangianApproach
p25
sS'auto_publish'
p26
I00
sS'last_change'
p27
(S'admin'
p28
F1490152714.328752
tp29
sS'worksheet_that_was_published'
p30
(g10
I5
tp31
s.